; Function Attrs: mustprogress uwtable
define hidden void @_ZN24ctx_propagate_assertions3popEj(ptr noundef nonnull align 8 dereferenceable(72) %0, i32 noundef %1) unnamed_addr #3 align 2 {
  %3 = alloca %"struct.obj_map<expr, expr *>::key_data", align 8
  %4 = getelementptr inbounds nuw i8, ptr %0, i64 64
  %5 = load ptr, ptr %4, align 8, !tbaa !58
  %6 = icmp eq ptr %5, null
  br i1 %6, label %_ZNK6vectorIjLb0EjE4sizeEv.exit, label %7

7:                                                ; preds = %2
  %8 = getelementptr inbounds i8, ptr %5, i64 -4
  %9 = load i32, ptr %8, align 4, !tbaa !57
  br label %_ZNK6vectorIjLb0EjE4sizeEv.exit

_ZNK6vectorIjLb0EjE4sizeEv.exit:                  ; preds = %2, %7
  %.0.i = phi i32 [ %9, %7 ], [ 0, %2 ]
  %10 = sub i32 %.0.i, %1
  %11 = zext i32 %10 to i64
  %12 = getelementptr inbounds nuw i32, ptr %5, i64 %11
  %13 = load i32, ptr %12, align 4, !tbaa !57
  %14 = getelementptr inbounds nuw i8, ptr %0, i64 48
  %15 = getelementptr inbounds nuw i8, ptr %0, i64 56
  %16 = load ptr, ptr %15, align 8, !tbaa !53
  %17 = icmp eq ptr %16, null
  br i1 %17, label %._crit_edge.thread, label %_ZNK15ref_vector_coreI4expr19ref_manager_wrapperIS0_11ast_managerEE4sizeEv.exit

_ZNK15ref_vector_coreI4expr19ref_manager_wrapperIS0_11ast_managerEE4sizeEv.exit: ; preds = %_ZNK6vectorIjLb0EjE4sizeEv.exit
  %18 = getelementptr inbounds i8, ptr %16, i64 -4
  %19 = load i32, ptr %18, align 4, !tbaa !57
  %20 = icmp ugt i32 %19, %13
  br i1 %20, label %.lr.ph, label %._crit_edge.thread

.lr.ph:                                           ; preds = %_ZNK15ref_vector_coreI4expr19ref_manager_wrapperIS0_11ast_managerEE4sizeEv.exit
  %21 = getelementptr inbounds nuw i8, ptr %0, i64 24
  %22 = getelementptr inbounds nuw i8, ptr %3, i64 8
  br label %23

23:                                               ; preds = %.lr.ph, %_ZN15ref_vector_coreI4expr19ref_manager_wrapperIS0_11ast_managerEE8pop_backEv.exit
  %.09 = phi i32 [ %19, %.lr.ph ], [ %24, %_ZN15ref_vector_coreI4expr19ref_manager_wrapperIS0_11ast_managerEE8pop_backEv.exit ]
  %24 = add i32 %.09, -1
  %25 = load ptr, ptr %15, align 8, !tbaa !53
  %26 = icmp eq ptr %25, null
  br i1 %26, label %_ZNK15ref_vector_coreI4expr19ref_manager_wrapperIS0_11ast_managerEE4backEv.exit, label %27

27:                                               ; preds = %23
  %28 = getelementptr inbounds i8, ptr %25, i64 -4
  %29 = load i32, ptr %28, align 4, !tbaa !57
  %30 = add i32 %29, -1
  %31 = zext i32 %30 to i64
  br label %_ZNK15ref_vector_coreI4expr19ref_manager_wrapperIS0_11ast_managerEE4backEv.exit

_ZNK15ref_vector_coreI4expr19ref_manager_wrapperIS0_11ast_managerEE4backEv.exit: ; preds = %23, %27
  %.0.i.i.i = phi i64 [ %31, %27 ], [ 4294967295, %23 ]
  %32 = getelementptr inbounds nuw ptr, ptr %25, i64 %.0.i.i.i
  %33 = load ptr, ptr %32, align 8, !tbaa !34
  call void @llvm.lifetime.start.p0(i64 16, ptr nonnull %3) #19
  store ptr %33, ptr %3, align 8, !tbaa !76
  store ptr null, ptr %22, align 8, !tbaa !77
  call void @_ZN14core_hashtableIN7obj_mapI4exprPS1_E13obj_map_entryE8obj_hashINS3_8key_dataEE10default_eqIS6_EE6removeERKS6_(ptr noundef nonnull align 8 dereferenceable(24) %21, ptr noundef nonnull align 8 dereferenceable(16) %3)
  call void @llvm.lifetime.end.p0(i64 16, ptr nonnull %3) #19
  %34 = load ptr, ptr %15, align 8, !tbaa !53
  %35 = icmp eq ptr %34, null
  br i1 %35, label %._ZN6vectorIP4exprLb0EjE4backEv.exit_crit_edge.i, label %36

._ZN6vectorIP4exprLb0EjE4backEv.exit_crit_edge.i: ; preds = %_ZNK15ref_vector_coreI4expr19ref_manager_wrapperIS0_11ast_managerEE4backEv.exit
  %.pre.i = load i32, ptr inttoptr (i64 -4 to ptr), align 4, !tbaa !57
  %.pre2.i = add i32 %.pre.i, -1
  br label %_ZN6vectorIP4exprLb0EjE4backEv.exit.i

36:                                               ; preds = %_ZNK15ref_vector_coreI4expr19ref_manager_wrapperIS0_11ast_managerEE4backEv.exit
  %37 = getelementptr inbounds i8, ptr %34, i64 -4
  %38 = load i32, ptr %37, align 4, !tbaa !57
  %39 = add i32 %38, -1
  %40 = zext i32 %39 to i64
  br label %_ZN6vectorIP4exprLb0EjE4backEv.exit.i

_ZN6vectorIP4exprLb0EjE4backEv.exit.i:            ; preds = %36, %._ZN6vectorIP4exprLb0EjE4backEv.exit_crit_edge.i
  %.pre-phi.i = phi i32 [ %.pre2.i, %._ZN6vectorIP4exprLb0EjE4backEv.exit_crit_edge.i ], [ %39, %36 ]
  %.0.i.i.i8 = phi i64 [ 4294967295, %._ZN6vectorIP4exprLb0EjE4backEv.exit_crit_edge.i ], [ %40, %36 ]
  %41 = getelementptr inbounds nuw ptr, ptr %34, i64 %.0.i.i.i8
  %42 = load ptr, ptr %41, align 8, !tbaa !34
  %43 = getelementptr inbounds i8, ptr %34, i64 -4
  store i32 %.pre-phi.i, ptr %43, align 4, !tbaa !57
  %44 = load ptr, ptr %14, align 8, !tbaa !81
  %.not.i.i.i.i = icmp eq ptr %42, null
  br i1 %.not.i.i.i.i, label %_ZN15ref_vector_coreI4expr19ref_manager_wrapperIS0_11ast_managerEE8pop_backEv.exit, label %45

45:                                               ; preds = %_ZN6vectorIP4exprLb0EjE4backEv.exit.i
  %46 = getelementptr inbounds nuw i8, ptr %42, i64 8
  %47 = load i32, ptr %46, align 4, !tbaa !38
  %48 = add i32 %47, -1
  store i32 %48, ptr %46, align 4, !tbaa !38
  %49 = icmp eq i32 %48, 0
  br i1 %49, label %50, label %_ZN15ref_vector_coreI4expr19ref_manager_wrapperIS0_11ast_managerEE8pop_backEv.exit

50:                                               ; preds = %45
  call void @_ZN11ast_manager11delete_nodeEP3ast(ptr noundef nonnull align 8 dereferenceable(976) %44, ptr noundef nonnull %42)
  br label %_ZN15ref_vector_coreI4expr19ref_manager_wrapperIS0_11ast_managerEE8pop_backEv.exit

_ZN15ref_vector_coreI4expr19ref_manager_wrapperIS0_11ast_managerEE8pop_backEv.exit: ; preds = %_ZN6vectorIP4exprLb0EjE4backEv.exit.i, %45, %50
  %51 = icmp ugt i32 %24, %13
  br i1 %51, label %23, label %._crit_edge, !llvm.loop !82

._crit_edge:                                      ; preds = %_ZN15ref_vector_coreI4expr19ref_manager_wrapperIS0_11ast_managerEE8pop_backEv.exit
  %.pre = load ptr, ptr %4, align 8, !tbaa !58
  %.not.i = icmp eq ptr %.pre, null
  br i1 %.not.i, label %_ZN6vectorIjLb0EjE6shrinkEj.exit, label %._crit_edge.thread

._crit_edge.thread:                               ; preds = %_ZNK6vectorIjLb0EjE4sizeEv.exit, %_ZNK15ref_vector_coreI4expr19ref_manager_wrapperIS0_11ast_managerEE4sizeEv.exit, %._crit_edge
  %52 = phi ptr [ %.pre, %._crit_edge ], [ %5, %_ZNK15ref_vector_coreI4expr19ref_manager_wrapperIS0_11ast_managerEE4sizeEv.exit ], [ %5, %_ZNK6vectorIjLb0EjE4sizeEv.exit ]
  %53 = getelementptr inbounds i8, ptr %52, i64 -4
  store i32 %10, ptr %53, align 4, !tbaa !57
  br label %_ZN6vectorIjLb0EjE6shrinkEj.exit

_ZN6vectorIjLb0EjE6shrinkEj.exit:                 ; preds = %._crit_edge, %._crit_edge.thread
  ret void
}